; Function Attrs: mustprogress norecurse uwtable
define dso_local noundef range(i32 -1, 2) i32 @main(i32 noundef %0, ptr noundef readonly captures(none) %1) local_unnamed_addr #0 {
  %3 = alloca i64, align 8
  %4 = alloca %struct.zmq_msg_t, align 8
  call void @llvm.lifetime.start.p0(i64 8, ptr nonnull %3) #11
  call void @llvm.lifetime.start.p0(i64 64, ptr nonnull %4) #11
  %.not = icmp eq i32 %0, 3
  br i1 %.not, label %6, label %5

5:                                                ; preds = %2
  %puts44 = tail call i32 @puts(ptr nonnull dereferenceable(1) @str.1)
  br label %109

6:                                                ; preds = %2
  %7 = getelementptr inbounds nuw i8, ptr %1, i64 8
  %8 = load ptr, ptr %7, align 8, !tbaa !4
  %9 = tail call i64 @strtol(ptr noundef nonnull captures(none) %8, ptr noundef null, i32 noundef 10) #11
  %10 = trunc i64 %9 to i32
  %sext = shl i64 %9, 32
  %11 = ashr exact i64 %sext, 32
  %12 = getelementptr inbounds nuw i8, ptr %1, i64 16
  %13 = load ptr, ptr %12, align 8, !tbaa !4
  %14 = tail call i64 @strtol(ptr noundef nonnull captures(none) %13, ptr noundef null, i32 noundef 10) #11
  %15 = trunc i64 %14 to i32
  store i32 %15, ptr @_ZL15roundtrip_count, align 4, !tbaa !9
  %16 = tail call ptr @zmq_init(i32 noundef 1)
  %.not33 = icmp eq ptr %16, null
  br i1 %.not33, label %17, label %22

17:                                               ; preds = %6
  %18 = tail call ptr @__errno_location() #12
  %19 = load i32, ptr %18, align 4, !tbaa !9
  %20 = tail call ptr @zmq_strerror(i32 noundef %19)
  %21 = tail call i32 (ptr, ...) @printf(ptr noundef nonnull dereferenceable(1) @.str.1, ptr noundef %20)
  br label %109

22:                                               ; preds = %6
  %23 = tail call ptr @zmq_socket(ptr noundef nonnull %16, i32 noundef 3)
  %.not34 = icmp eq ptr %23, null
  br i1 %.not34, label %24, label %29

24:                                               ; preds = %22
  %25 = tail call ptr @__errno_location() #12
  %26 = load i32, ptr %25, align 4, !tbaa !9
  %27 = tail call ptr @zmq_strerror(i32 noundef %26)
  %28 = tail call i32 (ptr, ...) @printf(ptr noundef nonnull dereferenceable(1) @.str.2, ptr noundef %27)
  br label %109

29:                                               ; preds = %22
  %30 = tail call i32 @zmq_bind(ptr noundef nonnull %23, ptr noundef nonnull @.str.3)
  %.not35 = icmp eq i32 %30, 0
  br i1 %.not35, label %36, label %31

31:                                               ; preds = %29
  %32 = tail call ptr @__errno_location() #12
  %33 = load i32, ptr %32, align 4, !tbaa !9
  %34 = tail call ptr @zmq_strerror(i32 noundef %33)
  %35 = tail call i32 (ptr, ...) @printf(ptr noundef nonnull dereferenceable(1) @.str.4, ptr noundef %34)
  br label %109

36:                                               ; preds = %29
  %37 = call i32 @pthread_create(ptr noundef nonnull %3, ptr noundef null, ptr noundef nonnull @_ZL6workerPv, ptr noundef nonnull %16) #11
  %.not36 = icmp eq i32 %37, 0
  br i1 %.not36, label %41, label %38

38:                                               ; preds = %36
  %39 = call ptr @zmq_strerror(i32 noundef %37)
  %40 = call i32 (ptr, ...) @printf(ptr noundef nonnull dereferenceable(1) @.str.5, ptr noundef %39)
  br label %109

41:                                               ; preds = %36
  %42 = call i32 @zmq_msg_init_size(ptr noundef nonnull %4, i64 noundef %11)
  %.not37 = icmp eq i32 %42, 0
  br i1 %.not37, label %48, label %43

43:                                               ; preds = %41
  %44 = tail call ptr @__errno_location() #12
  %45 = load i32, ptr %44, align 4, !tbaa !9
  %46 = call ptr @zmq_strerror(i32 noundef %45)
  %47 = call i32 (ptr, ...) @printf(ptr noundef nonnull dereferenceable(1) @.str.6, ptr noundef %46)
  br label %109

48:                                               ; preds = %41
  %49 = call ptr @zmq_msg_data(ptr noundef nonnull %4)
  call void @llvm.memset.p0.i64(ptr align 1 %49, i8 0, i64 %11, i1 false)
  %50 = call i32 (ptr, ...) @printf(ptr noundef nonnull dereferenceable(1) @.str.7, i32 noundef %10)
  %51 = load i32, ptr @_ZL15roundtrip_count, align 4, !tbaa !9
  %52 = call i32 (ptr, ...) @printf(ptr noundef nonnull dereferenceable(1) @.str.8, i32 noundef %51)
  %53 = call ptr @zmq_stopwatch_start()
  %54 = load i32, ptr @_ZL15roundtrip_count, align 4, !tbaa !9
  %.not3845 = icmp eq i32 %54, 0
  br i1 %.not3845, label %._crit_edge, label %.lr.ph

55:                                               ; preds = %73
  %56 = add nuw nsw i32 %.02846, 1
  %57 = load i32, ptr @_ZL15roundtrip_count, align 4, !tbaa !9
  %.not38 = icmp eq i32 %56, %57
  br i1 %.not38, label %._crit_edge, label %.lr.ph, !llvm.loop !11

.lr.ph:                                           ; preds = %48, %55
  %.02846 = phi i32 [ %56, %55 ], [ 0, %48 ]
  %58 = call i32 @zmq_sendmsg(ptr noundef nonnull %23, ptr noundef nonnull %4, i32 noundef 0)
  %59 = icmp slt i32 %58, 0
  br i1 %59, label %60, label %65

60:                                               ; preds = %.lr.ph
  %61 = tail call ptr @__errno_location() #12
  %62 = load i32, ptr %61, align 4, !tbaa !9
  %63 = call ptr @zmq_strerror(i32 noundef %62)
  %64 = call i32 (ptr, ...) @printf(ptr noundef nonnull dereferenceable(1) @.str.9, ptr noundef %63)
  br label %109

65:                                               ; preds = %.lr.ph
  %66 = call i32 @zmq_recvmsg(ptr noundef nonnull %23, ptr noundef nonnull %4, i32 noundef 0)
  %67 = icmp slt i32 %66, 0
  br i1 %67, label %68, label %73

68:                                               ; preds = %65
  %69 = tail call ptr @__errno_location() #12
  %70 = load i32, ptr %69, align 4, !tbaa !9
  %71 = call ptr @zmq_strerror(i32 noundef %70)
  %72 = call i32 (ptr, ...) @printf(ptr noundef nonnull dereferenceable(1) @.str.10, ptr noundef %71)
  br label %109

73:                                               ; preds = %65
  %74 = call i64 @zmq_msg_size(ptr noundef nonnull %4)
  %.not43 = icmp eq i64 %74, %11
  br i1 %.not43, label %55, label %75

75:                                               ; preds = %73
  %puts = call i32 @puts(ptr nonnull dereferenceable(1) @str)
  br label %109

._crit_edge:                                      ; preds = %55, %48
  %76 = call i64 @zmq_stopwatch_stop(ptr noundef %53)
  %77 = call i32 @zmq_msg_close(ptr noundef nonnull %4)
  %.not39 = icmp eq i32 %77, 0
  br i1 %.not39, label %83, label %78

78:                                               ; preds = %._crit_edge
  %79 = tail call ptr @__errno_location() #12
  %80 = load i32, ptr %79, align 4, !tbaa !9
  %81 = call ptr @zmq_strerror(i32 noundef %80)
  %82 = call i32 (ptr, ...) @printf(ptr noundef nonnull dereferenceable(1) @.str.12, ptr noundef %81)
  br label %109

83:                                               ; preds = %._crit_edge
  %84 = load i32, ptr @_ZL15roundtrip_count, align 4, !tbaa !9
  %85 = load i64, ptr %3, align 8, !tbaa !13
  %86 = call i32 @pthread_join(i64 noundef %85, ptr noundef null)
  %.not40 = icmp eq i32 %86, 0
  br i1 %.not40, label %90, label %87

87:                                               ; preds = %83
  %88 = call ptr @zmq_strerror(i32 noundef %86)
  %89 = call i32 (ptr, ...) @printf(ptr noundef nonnull dereferenceable(1) @.str.13, ptr noundef %88)
  br label %109

90:                                               ; preds = %83
  %91 = uitofp i64 %76 to double
  %92 = shl nsw i32 %84, 1
  %93 = sitofp i32 %92 to double
  %94 = fdiv double %91, %93
  %95 = call i32 (ptr, ...) @printf(ptr noundef nonnull dereferenceable(1) @.str.14, double noundef %94)
  %96 = call i32 @zmq_close(ptr noundef nonnull %23)
  %.not41 = icmp eq i32 %96, 0
  br i1 %.not41, label %102, label %97

97:                                               ; preds = %90
  %98 = tail call ptr @__errno_location() #12
  %99 = load i32, ptr %98, align 4, !tbaa !9
  %100 = call ptr @zmq_strerror(i32 noundef %99)
  %101 = call i32 (ptr, ...) @printf(ptr noundef nonnull dereferenceable(1) @.str.15, ptr noundef %100)
  br label %109

102:                                              ; preds = %90
  %103 = call i32 @zmq_ctx_term(ptr noundef nonnull %16)
  %.not42 = icmp eq i32 %103, 0
  br i1 %.not42, label %109, label %104

104:                                              ; preds = %102
  %105 = tail call ptr @__errno_location() #12
  %106 = load i32, ptr %105, align 4, !tbaa !9
  %107 = call ptr @zmq_strerror(i32 noundef %106)
  %108 = call i32 (ptr, ...) @printf(ptr noundef nonnull dereferenceable(1) @.str.16, ptr noundef %107)
  br label %109

109:                                              ; preds = %102, %104, %97, %87, %78, %75, %68, %60, %43, %38, %31, %24, %17, %5
  %.0 = phi i32 [ 1, %5 ], [ -1, %31 ], [ -1, %38 ], [ -1, %43 ], [ -1, %60 ], [ -1, %68 ], [ -1, %75 ], [ -1, %78 ], [ -1, %87 ], [ -1, %97 ], [ -1, %104 ], [ -1, %24 ], [ -1, %17 ], [ 0, %102 ]
  call void @llvm.lifetime.end.p0(i64 64, ptr nonnull %4) #11
  call void @llvm.lifetime.end.p0(i64 8, ptr nonnull %3) #11
  ret i32 %.0
}